(lp0
Vadmin
p1
aVBIOMD0000000051
p2
aVBIOMD0000000299
p3
aVBIOMD0000000298
p4
aVBIOMD0000000159
p5
aVBIOMD0000000156
p6
aVBIOMD0000000155
p7
aVBIOMD0000000158
p8
aVBIOMD0000000157
p9
aVBIOMD0000000162
p10
aVBIOMD0000000163
p11
aVBIOMD0000000164
p12
aVBIOMD0000000165
p13
aVBIOMD0000000160
p14
aVBIOMD0000000161
p15
aVBIOMD0000000289
p16
aVBIOMD0000000288
p17
aVBIOMD0000000287
p18
aVBIOMD0000000149
p19
aVBIOMD0000000148
p20
aVBIOMD0000000147
p21
aVBIOMD0000000146
p22
aVBIOMD0000000145
p23
aVBIOMD0000000144
p24
aVBIOMD0000000153
p25
aVBIOMD0000000154
p26
aVBIOMD0000000151
p27
aVBIOMD0000000152
p28
aVBIOMD0000000150
p29
aVBIOMD0000000292
p30
aVBIOMD0000000293
p31
aVBIOMD0000000290
p32
aVBIOMD0000000291
p33
aVBIOMD0000000296
p34
aVBIOMD0000000297
p35
aVBIOMD0000000294
p36
aVBIOMD0000000295
p37
aVBIOMD0000000277
p38
aVBIOMD0000000276
p39
aVBIOMD0000000279
p40
aVBIOMD0000000278
p41
aVBIOMD0000000178
p42
aVBIOMD0000000177
p43
aVBIOMD0000000179
p44
aVBIOMD0000000180
p45
aVBIOMD0000000181
p46
aVBIOMD0000000182
p47
aVBIOMD0000000183
p48
aVBIOMD0000000184
p49
aVBIOMD0000000185
p50
aVBIOMD0000000186
p51
aVBIOMD0000000187
p52
aVBIOMD0000000283
p53
aVBIOMD0000000284
p54
aVBIOMD0000000285
p55
aVBIOMD0000000286
p56
aVBIOMD0000000280
p57
aVBIOMD0000000281
p58
aVBIOMD0000000282
p59
aVBIOMD0000000269
p60
aVBIOMD0000000268
p61
aVBIOMD0000000267
p62
aVBIOMD0000000266
p63
aVBIOMD0000000265
p64
aVBIOMD0000000169
p65
aVBIOMD0000000168
p66
aVBIOMD0000000167
p67
aVBIOMD0000000166
p68
aVBIOMD0000000171
p69
aVBIOMD0000000172
p70
aVBIOMD0000000170
p71
aVBIOMD0000000175
p72
aVBIOMD0000000176
p73
aVBIOMD0000000173
p74
aVBIOMD0000000174
p75
aVBIOMD0000000274
p76
aVBIOMD0000000275
p77
aVBIOMD0000000272
p78
aVBIOMD0000000273
p79
aVBIOMD0000000270
p80
aVBIOMD0000000271
p81
aVBIOMD0000000013
p82
aVBIOMD0000000012
p83
aVBIOMD0000000015
p84
aVBIOMD0000000014
p85
aVBIOMD0000000017
p86
aVBIOMD0000000199
p87
aVBIOMD0000000119
p88
aVBIOMD0000000016
p89
aVBIOMD0000000019
p90
aVBIOMD0000000018
p91
aVBIOMD0000000116
p92
aVBIOMD0000000115
p93
aVBIOMD0000000118
p94
aVBIOMD0000000117
p95
aVBIOMD0000000112
p96
aVBIOMD0000000111
p97
aVBIOMD0000000114
p98
aVBIOMD0000000113
p99
aVBIOMD0000000120
p100
aVBIOMD0000000121
p101
aVBIOMD0000000398
p102
aVBIOMD0000000397
p103
aVBIOMD0000000020
p104
aVBIOMD0000000021
p105
aVBIOMD0000000399
p106
aVBIOMD0000000022
p107
aVBIOMD0000000395
p108
aVBIOMD0000000004
p109
aVBIOMD0000000396
p110
aVBIOMD0000000003
p111
aVBIOMD0000000393
p112
aVBIOMD0000000002
p113
aVBIOMD0000000394
p114
aVBIOMD0000000001
p115
aVBIOMD0000000391
p116
aVBIOMD0000000008
p117
aVBIOMD0000000392
p118
aVBIOMD0000000007
p119
aVBIOMD0000000188
p120
aVBIOMD0000000109
p121
aVBIOMD0000000006
p122
aVBIOMD0000000108
p123
aVBIOMD0000000189
p124
aVBIOMD0000000390
p125
aVBIOMD0000000005
p126
aVBIOMD0000000107
p127
aVBIOMD0000000106
p128
aVBIOMD0000000105
p129
aVBIOMD0000000104
p130
aVBIOMD0000000009
p131
aVBIOMD0000000103
p132
aVBIOMD0000000102
p133
aVBIOMD0000000101
p134
aVBIOMD0000000100
p135
aVBIOMD0000000190
p136
aVBIOMD0000000110
p137
aVBIOMD0000000198
p138
aVBIOMD0000000197
p139
aVBIOMD0000000196
p140
aVBIOMD0000000195
p141
aVBIOMD0000000389
p142
aVBIOMD0000000194
p143
aVBIOMD0000000010
p144
aVBIOMD0000000388
p145
aVBIOMD0000000193
p146
aVBIOMD0000000011
p147
aVBIOMD0000000387
p148
aVBIOMD0000000192
p149
aVBIOMD0000000386
p150
aVBIOMD0000000191
p151
aVBIOMD0000000134
p152
aVBIOMD0000000133
p153
aVBIOMD0000000136
p154
aVBIOMD0000000135
p155
aVBIOMD0000000138
p156
aVBIOMD0000000137
p157
aVBIOMD0000000139
p158
aVBIOMD0000000140
p159
aVBIOMD0000000141
p160
aVBIOMD0000000142
p161
aVBIOMD0000000143
p162
aVBIOMD0000000125
p163
aVBIOMD0000000124
p164
aVBIOMD0000000123
p165
aVBIOMD0000000122
p166
aVBIOMD0000000129
p167
aVBIOMD0000000128
p168
aVBIOMD0000000127
p169
aVBIOMD0000000126
p170
aVBIOMD0000000131
p171
aVBIOMD0000000132
p172
aVBIOMD0000000130
p173
aVBIOMD0000000463
p174
aVBIOMD0000000464
p175
aVBIOMD0000000465
p176
aVBIOMD0000000466
p177
aVBIOMD0000000467
p178
aVBIOMD0000000468
p179
aVBIOMD0000000469
p180
aVBIOMD0000000330
p181
aVBIOMD0000000031
p182
aVBIOMD0000000030
p183
aVBIOMD0000000033
p184
aVBIOMD0000000032
p185
aVBIOMD0000000325
p186
aVBIOMD0000000023
p187
aVBIOMD0000000324
p188
aVBIOMD0000000024
p189
aVBIOMD0000000327
p190
aVBIOMD0000000025
p191
aVBIOMD0000000326
p192
aVBIOMD0000000026
p193
aVBIOMD0000000321
p194
aVBIOMD0000000027
p195
aVBIOMD0000000320
p196
aVBIOMD0000000028
p197
aVBIOMD0000000323
p198
aVBIOMD0000000029
p199
aVBIOMD0000000322
p200
aVBIOMD0000000329
p201
aVBIOMD0000000471
p202
aVBIOMD0000000328
p203
aVBIOMD0000000470
p204
aVBIOMD0000000473
p205
aVBIOMD0000000472
p206
aVBIOMD0000000476
p207
aVBIOMD0000000477
p208
aVBIOMD0000000474
p209
aVBIOMD0000000475
p210
aVBIOMD0000000478
p211
aVBIOMD0000000479
p212
aVBIOMD0000000340
p213
aVBIOMD0000000040
p214
aVBIOMD0000000341
p215
aVBIOMD0000000044
p216
aVBIOMD0000000043
p217
aVBIOMD0000000042
p218
aVBIOMD0000000041
p219
aVBIOMD0000000338
p220
aVBIOMD0000000036
p221
aVBIOMD0000000337
p222
aVBIOMD0000000037
p223
aVBIOMD0000000336
p224
aVBIOMD0000000034
p225
aVBIOMD0000000335
p226
aVBIOMD0000000035
p227
aVBIOMD0000000334
p228
aVBIOMD0000000333
p229
aVBIOMD0000000332
p230
aVBIOMD0000000038
p231
aVBIOMD0000000331
p232
aVBIOMD0000000039
p233
aVBIOMD0000000480
p234
aVBIOMD0000000484
p235
aVBIOMD0000000483
p236
aVBIOMD0000000482
p237
aVBIOMD0000000481
p238
aVBIOMD0000000339
p239
aVBIOMD0000000489
p240
aVBIOMD0000000485
p241
aVBIOMD0000000486
p242
aVBIOMD0000000487
p243
aVBIOMD0000000488
p244
aVBIOMD0000000053
p245
aVBIOMD0000000052
p246
aVBIOMD0000000055
p247
aVBIOMD0000000054
p248
aVBIOMD0000000050
p249
aVBIOMD0000000049
p250
aVBIOMD0000000301
p251
aVBIOMD0000000300
p252
aVBIOMD0000000303
p253
aVBIOMD0000000208
p254
aVBIOMD0000000045
p255
aVBIOMD0000000207
p256
aVBIOMD0000000302
p257
aVBIOMD0000000046
p258
aVBIOMD0000000305
p259
aVBIOMD0000000047
p260
aVBIOMD0000000209
p261
aVBIOMD0000000304
p262
aVBIOMD0000000048
p263
aVBIOMD0000000493
p264
aVBIOMD0000000204
p265
aVBIOMD0000000307
p266
aVBIOMD0000000492
p267
aVBIOMD0000000203
p268
aVBIOMD0000000306
p269
aVBIOMD0000000495
p270
aVBIOMD0000000206
p271
aVBIOMD0000000309
p272
aVBIOMD0000000494
p273
aVBIOMD0000000308
p274
aVBIOMD0000000205
p275
aVBIOMD0000000200
p276
aVBIOMD0000000491
p277
aVBIOMD0000000202
p278
aVBIOMD0000000201
p279
aVBIOMD0000000490
p280
aVBIOMD0000000220
p281
aVBIOMD0000000498
p282
aVBIOMD0000000499
p283
aVBIOMD0000000496
p284
aVBIOMD0000000497
p285
aVBIOMD0000000066
p286
aVBIOMD0000000065
p287
aVBIOMD0000000064
p288
aVBIOMD0000000063
p289
aVBIOMD0000000062
p290
aVBIOMD0000000061
p291
aVBIOMD0000000060
p292
aVBIOMD0000000312
p293
aVBIOMD0000000311
p294
aVBIOMD0000000310
p295
aVBIOMD0000000058
p296
aVBIOMD0000000316
p297
aVBIOMD0000000059
p298
aVBIOMD0000000315
p299
aVBIOMD0000000219
p300
aVBIOMD0000000314
p301
aVBIOMD0000000056
p302
aVBIOMD0000000218
p303
aVBIOMD0000000313
p304
aVBIOMD0000000057
p305
aVBIOMD0000000217
p306
aVBIOMD0000000319
p307
aVBIOMD0000000216
p308
aVBIOMD0000000215
p309
aVBIOMD0000000318
p310
aVBIOMD0000000214
p311
aVBIOMD0000000317
p312
aVBIOMD0000000213
p313
aVBIOMD0000000212
p314
aVBIOMD0000000211
p315
aVBIOMD0000000210
p316
aVBIOMD0000000372
p317
aVBIOMD0000000428
p318
aVBIOMD0000000070
p319
aVBIOMD0000000371
p320
aVBIOMD0000000071
p321
aVBIOMD0000000427
p322
aVBIOMD0000000374
p323
aVBIOMD0000000072
p324
aVBIOMD0000000373
p325
aVBIOMD0000000429
p326
aVBIOMD0000000073
p327
aVBIOMD0000000074
p328
aVBIOMD0000000075
p329
aVBIOMD0000000370
p330
aVBIOMD0000000076
p331
aVBIOMD0000000077
p332
aVBIOMD0000000420
p333
aVBIOMD0000000422
p334
aVBIOMD0000000421
p335
aVBIOMD0000000424
p336
aVBIOMD0000000423
p337
aVBIOMD0000000426
p338
aVBIOMD0000000231
p339
aVBIOMD0000000425
p340
aVBIOMD0000000230
p341
aVBIOMD0000000221
p342
aVBIOMD0000000222
p343
aVBIOMD0000000223
p344
aVBIOMD0000000224
p345
aVBIOMD0000000225
p346
aVBIOMD0000000226
p347
aVBIOMD0000000227
p348
aVBIOMD0000000228
p349
aVBIOMD0000000229
p350
aVBIOMD0000000368
p351
aVBIOMD0000000068
p352
aVBIOMD0000000369
p353
aVBIOMD0000000067
p354
aVBIOMD0000000069
p355
aVBIOMD0000000364
p356
aVBIOMD0000000365
p357
aVBIOMD0000000366
p358
aVBIOMD0000000367
p359
aVBIOMD0000000083
p360
aVBIOMD0000000385
p361
aVBIOMD0000000384
p362
aVBIOMD0000000084
p363
aVBIOMD0000000439
p364
aVBIOMD0000000383
p365
aVBIOMD0000000081
p366
aVBIOMD0000000382
p367
aVBIOMD0000000438
p368
aVBIOMD0000000082
p369
aVBIOMD0000000381
p370
aVBIOMD0000000087
p371
aVBIOMD0000000380
p372
aVBIOMD0000000088
p373
aVBIOMD0000000085
p374
aVBIOMD0000000086
p375
aVBIOMD0000000433
p376
aVBIOMD0000000432
p377
aVBIOMD0000000431
p378
aVBIOMD0000000430
p379
aVBIOMD0000000242
p380
aVBIOMD0000000437
p381
aVBIOMD0000000241
p382
aVBIOMD0000000436
p383
aVBIOMD0000000080
p384
aVBIOMD0000000240
p385
aVBIOMD0000000435
p386
aVBIOMD0000000434
p387
aVBIOMD0000000234
p388
aVBIOMD0000000235
p389
aVBIOMD0000000232
p390
aVBIOMD0000000233
p391
aVBIOMD0000000238
p392
aVBIOMD0000000239
p393
aVBIOMD0000000440
p394
aVBIOMD0000000236
p395
aVBIOMD0000000237
p396
aVBIOMD0000000379
p397
aVBIOMD0000000079
p398
aVBIOMD0000000078
p399
aVBIOMD0000000377
p400
aVBIOMD0000000378
p401
aVBIOMD0000000375
p402
aVBIOMD0000000376
p403
aVBIOMD0000000541
p404
aVBIOMD0000000096
p405
aVBIOMD0000000540
p406
aVBIOMD0000000097
p407
aVBIOMD0000000543
p408
aVBIOMD0000000098
p409
aVBIOMD0000000542
p410
aVBIOMD0000000099
p411
aVBIOMD0000000545
p412
aVBIOMD0000000350
p413
aVBIOMD0000000092
p414
aVBIOMD0000000544
p415
aVBIOMD0000000449
p416
aVBIOMD0000000093
p417
aVBIOMD0000000547
p418
aVBIOMD0000000352
p419
aVBIOMD0000000094
p420
aVBIOMD0000000546
p421
aVBIOMD0000000351
p422
aVBIOMD0000000095
p423
aVBIOMD0000000251
p424
aVBIOMD0000000446
p425
aVBIOMD0000000548
p426
aVBIOMD0000000445
p427
aVBIOMD0000000250
p428
aVBIOMD0000000448
p429
aVBIOMD0000000253
p430
aVBIOMD0000000090
p431
aVBIOMD0000000252
p432
aVBIOMD0000000091
p433
aVBIOMD0000000447
p434
aVBIOMD0000000442
p435
aVBIOMD0000000441
p436
aVBIOMD0000000444
p437
aVBIOMD0000000443
p438
aVBIOMD0000000247
p439
aVBIOMD0000000248
p440
aVBIOMD0000000249
p441
aVBIOMD0000000450
p442
aVBIOMD0000000451
p443
aVBIOMD0000000243
p444
aVBIOMD0000000244
p445
aVBIOMD0000000245
p446
aVBIOMD0000000246
p447
aVBIOMD0000000342
p448
aVBIOMD0000000343
p449
aVBIOMD0000000344
p450
aVBIOMD0000000345
p451
aVBIOMD0000000346
p452
aVBIOMD0000000347
p453
aVBIOMD0000000089
p454
aVBIOMD0000000348
p455
aVBIOMD0000000349
p456
aVBIOMD0000000363
p457
aVBIOMD0000000362
p458
aVBIOMD0000000361
p459
aVBIOMD0000000360
p460
aVBIOMD0000000264
p461
aVBIOMD0000000459
p462
aVBIOMD0000000263
p463
aVBIOMD0000000458
p464
aVBIOMD0000000262
p465
aVBIOMD0000000457
p466
aVBIOMD0000000261
p467
aVBIOMD0000000456
p468
aVBIOMD0000000260
p469
aVBIOMD0000000455
p470
aVBIOMD0000000454
p471
aVBIOMD0000000453
p472
aVBIOMD0000000452
p473
aVBIOMD0000000461
p474
aVBIOMD0000000462
p475
aVBIOMD0000000258
p476
aVBIOMD0000000259
p477
aVBIOMD0000000460
p478
aVBIOMD0000000256
p479
aVBIOMD0000000257
p480
aVBIOMD0000000254
p481
aVBIOMD0000000255
p482
aVBIOMD0000000355
p483
aVBIOMD0000000356
p484
aVBIOMD0000000353
p485
aVBIOMD0000000354
p486
aVBIOMD0000000359
p487
aVBIOMD0000000357
p488
aVBIOMD0000000358
p489
aVBIOMD0000000528
p490
aVBIOMD0000000529
p491
aVBIOMD0000000526
p492
aVBIOMD0000000527
p493
aVBIOMD0000000524
p494
aVBIOMD0000000525
p495
aVBIOMD0000000522
p496
aVBIOMD0000000523
p497
aVBIOMD0000000520
p498
aVBIOMD0000000521
p499
aVBIOMD0000000537
p500
aVBIOMD0000000538
p501
aVBIOMD0000000539
p502
aVBIOMD0000000533
p503
aVBIOMD0000000534
p504
aVBIOMD0000000535
p505
aVBIOMD0000000536
p506
aVBIOMD0000000530
p507
aVBIOMD0000000531
p508
aVBIOMD0000000532
p509
aVBIOMD0000000403
p510
aVBIOMD0000000506
p511
aVBIOMD0000000507
p512
aVBIOMD0000000404
p513
aVBIOMD0000000504
p514
aVBIOMD0000000401
p515
aVBIOMD0000000402
p516
aVBIOMD0000000505
p517
aVBIOMD0000000400
p518
aVBIOMD0000000508
p519
aVBIOMD0000000509
p520
aVBIOMD0000000409
p521
aVBIOMD0000000407
p522
aVBIOMD0000000502
p523
aVBIOMD0000000408
p524
aVBIOMD0000000503
p525
aVBIOMD0000000405
p526
aVBIOMD0000000500
p527
aVBIOMD0000000406
p528
aVBIOMD0000000501
p529
aVBIOMD0000000515
p530
aVBIOMD0000000412
p531
aVBIOMD0000000516
p532
aVBIOMD0000000413
p533
aVBIOMD0000000414
p534
aVBIOMD0000000517
p535
aVBIOMD0000000415
p536
aVBIOMD0000000518
p537
aVBIOMD0000000519
p538
aVBIOMD0000000410
p539
aVBIOMD0000000411
p540
aVBIOMD0000000510
p541
aVBIOMD0000000416
p542
aVBIOMD0000000511
p543
aVBIOMD0000000512
p544
aVBIOMD0000000417
p545
aVBIOMD0000000513
p546
aVBIOMD0000000418
p547
aVBIOMD0000000514
p548
aVBIOMD0000000419
p549
aVMODEL5662398146
p550
aVMODEL1006230069
p551
aVMODEL1006230068
p552
aVMODEL1310110029
p553
aVMODEL1310110028
p554
aVMODEL1208060000
p555
aVMODEL9088294310
p556
aVMODEL7743315447
p557
aVMODEL1006230121
p558
aVMODEL1107050000
p559
aVMODEL1006230120
p560
aVMODEL1310110020
p561
aVMODEL4780181279
p562
aVMODEL1310110021
p563
aVMODEL1310110022
p564
aVMODEL1310110023
p565
aVMODEL0911532520
p566
aVMODEL1310110024
p567
aVMODEL1310110025
p568
aVMODEL1310110026
p569
aVMODEL1110130000
p570
aVMODEL1310110027
p571
aVMODEL1110130001
p572
aVMODEL1006230065
p573
aVMODEL1011090002
p574
aVMODEL1011090001
p575
aVMODEL1006230063
p576
aVMODEL1011090000
p577
aVMODEL1006230064
p578
aVMODEL1006230061
p579
aVMODEL1006230062
p580
aVMODEL1006230060
p581
aVMODEL1006230057
p582
aVMODEL1006230056
p583
aVMODEL1006230059
p584
aVMODEL1006230058
p585
aVMODEL1310110019
p586
aVMODEL1310110018
p587
aVMODEL1310110017
p588
aVMODEL1006230110
p589
aVMODEL1310110011
p590
aVMODEL1204280032
p591
aVMODEL1111070002
p592
aVMODEL0403888565
p593
aVMODEL1006230111
p594
aVMODEL1310110012
p595
aVMODEL1204280031
p596
aVMODEL1111070003
p597
aVMODEL1006230112
p598
aVMODEL1204280030
p599
aVMODEL1111070000
p600
aVMODEL1006230113
p601
aVMODEL1310110010
p602
aVMODEL1111070001
p603
aVMODEL1006230114
p604
aVMODEL1310110015
p605
aVMODEL1006230115
p606
aVMODEL1310110016
p607
aVMODEL1204280035
p608
aVMODEL1006230116
p609
aVMODEL1310110013
p610
aVMODEL1204280034
p611
aVMODEL1172200168
p612
aVMODEL1006230117
p613
aVMODEL1310110014
p614
aVMODEL1204280033
p615
aVMODEL1006230118
p616
aVMODEL1006230119
p617
aVMODEL1006230052
p618
aVMODEL1204280039
p619
aVMODEL1006230053
p620
aVMODEL1204280038
p621
aVMODEL1006230054
p622
aVMODEL1204280037
p623
aVMODEL1006230055
p624
aVMODEL1006230050
p625
aVMODEL0478895291
p626
aVMODEL1006230048
p627
aVMODEL1006230047
p628
aVMODEL0848676877
p629
aVMODEL1006230046
p630
aVMODEL1006230045
p631
aVMODEL0911202318
p632
aVMODEL8685104549
p633
aVMODEL0975191032
p634
aVMODEL1006230049
p635
aVMODEL8459127548
p636
aVMODEL0404023805
p637
aVMODEL7891585309
p638
aVMODEL1101180000
p639
aVMODEL1310110046
p640
aVMODEL1310110047
p641
aVMODEL1310110048
p642
aVMODEL1310110049
p643
aVMODEL1310110042
p644
aVMODEL1310110043
p645
aVMODEL1310110044
p646
aVMODEL1310110045
p647
aVMODEL8478881246
p648
aVMODEL0848444339
p649
aVMODEL1006230040
p650
aVMODEL1310110040
p651
aVMODEL9071122126
p652
aVMODEL1310110041
p653
aVMODEL1006230044
p654
aVMODEL1006230041
p655
aVMODEL1006230035
p656
aVMODEL1006230034
p657
aVMODEL1006230037
p658
aVMODEL1006230036
p659
aVMODEL1006230039
p660
aVMODEL1105180000
p661
aVMODEL8262229752
p662
aVMODEL1006230038
p663
aVMODEL4816599063
p664
aVMODEL1112150000
p665
aVMODEL1310110039
p666
aVMODEL1310110037
p667
aVMODEL1310110038
p668
aVMODEL1310110035
p669
aVMODEL1310110036
p670
aVMODEL1310110033
p671
aVMODEL1210260004
p672
aVMODEL1310110034
p673
aVMODEL1310110031
p674
aVMODEL1310110032
p675
aVMODEL8683876463
p676
aVMODEL1310110030
p677
aVMODEL1105100000
p678
aVMODEL6623617994
p679
aVMODEL1006230030
p680
aVMODEL1006230031
p681
aVMODEL1006230032
p682
aVMODEL1006230033
p683
aVMODEL1203220000
p684
aVMODEL1103210001
p685
aVMODEL1949107276
p686
aVMODEL1006230029
p687
aVMODEL1006230027
p688
aVMODEL1006230028
p689
aVMODEL8684444027
p690
aVMODEL1006230025
p691
aVMODEL1006230026
p692
aVMODEL1006230023
p693
aVMODEL1006230024
p694
aVMODEL1204280004
p695
aVMODEL1006230022
p696
aVMODEL1204280005
p697
aVMODEL1006230021
p698
aVMODEL1204280006
p699
aVMODEL1006230020
p700
aVMODEL1204280007
p701
aVMODEL1310110061
p702
aVMODEL1204280008
p703
aVMODEL1208280000
p704
aVMODEL1208280001
p705
aVMODEL1310110060
p706
aVMODEL1204280009
p707
aVMODEL1310110063
p708
aVMODEL1310110062
p709
aVMODEL6185511733
p710
aVMODEL1310110064
p711
aVMODEL1204280001
p712
aVMODEL1204280002
p713
aVMODEL1204280003
p714
aVMODEL1302010006
p715
aVMODEL1012090005
p716
aVMODEL1302010007
p717
aVMODEL1012090004
p718
aVMODEL1302010008
p719
aVMODEL1012090003
p720
aVMODEL1302010009
p721
aVMODEL1012090002
p722
aVMODEL1302010002
p723
aVMODEL1302010003
p724
aVMODEL1302010004
p725
aVMODEL1302010005
p726
aVMODEL1006230016
p727
aVMODEL1006230017
p728
aVMODEL1006230018
p729
aVMODEL1006230019
p730
aVMODEL0912887467
p731
aVMODEL1006230012
p732
aVMODEL9081220742
p733
aVMODEL1006230013
p734
aVMODEL1006230014
p735
aVMODEL1006230015
p736
aVMODEL1012090006
p737
aVMODEL0912044015
p738
aVMODEL0848507209
p739
aVMODEL1006230011
p740
aVMODEL1012140001
p741
aVMODEL1006230010
p742
aVMODEL1012140000
p743
aVMODEL1310110052
p744
aVMODEL1007060000
p745
aVMODEL1310110051
p746
aVMODEL0913049417
p747
aVMODEL0911091440
p748
aVMODEL4780784080
p749
aVMODEL1310110050
p750
aVMODEL1310110056
p751
aVMODEL0913003363
p752
aVMODEL1310110055
p753
aVMODEL1302010001
p754
aVMODEL1310110054
p755
aVMODEL2427021978
p756
aVMODEL7743212613
p757
aVMODEL1302010000
p758
aVMODEL1310110053
p759
aVMODEL7743631122
p760
aVMODEL1310110059
p761
aVMODEL0848279215
p762
aVMODEL1310110058
p763
aVMODEL1310110057
p764
aVMODEL6624091635
p765
aVMODEL1006230009
p766
aVMODEL1106200000
p767
aVMODEL0911989198
p768
aVMODEL1008060002
p769
aVMODEL9089538076
p770
aVMODEL1006230003
p771
aVMODEL1006230004
p772
aVMODEL1008240001
p773
aVMODEL1006230001
p774
aVMODEL1008060001
p775
aVMODEL1006230002
p776
aVMODEL1008060000
p777
aVMODEL1006230007
p778
aVMODEL1006230008
p779
aVMODEL1006230005
p780
aVMODEL1006230006
p781
aVMODEL1305060000
p782
aVMODEL4821294342
p783
aVMODEL1204280026
p784
aVMODEL1006230000
p785
aVMODEL1204280027
p786
aVMODEL9087255381
p787
aVMODEL1204280028
p788
aVMODEL1204280029
p789
aVMODEL1204280022
p790
aVMODEL1204280023
p791
aVMODEL1011020000
p792
aVMODEL0912388235
p793
aVMODEL1204280025
p794
aVMODEL1005200000
p795
aVMODEL5662425708
p796
aVMODEL1405070000
p797
aVMODEL1204280021
p798
aVMODEL0910846879
p799
aVMODEL1310160000
p800
aVMODEL1208030000
p801
aVMODEL1106160000
p802
aVMODEL0568648427
p803
aVMODEL1204280019
p804
aVMODEL1204280017
p805
aVMODEL1204280018
p806
aVMODEL1204280015
p807
aVMODEL1204280016
p808
aVMODEL5974712823
p809
aVMODEL1204280013
p810
aVMODEL6624199343
p811
aVMODEL1204280014
p812
aVMODEL1204280011
p813
aVMODEL1204280012
p814
aVMODEL1204280010
p815
aVMODEL9077438479
p816
aVMODEL9071773985
p817
aVMODEL1304120000
p818
aVMODEL9147975215
p819
aVMODEL7817907010
p820
aVMODEL1304300000
p821
aVMODEL9080388197
p822
aVMODEL1204270001
p823
aVMODEL0912096133
p824
aVMODEL1303260017
p825
aVMODEL1303260018
p826
aVMODEL9086518048
p827
aVMODEL0491251823
p828
aVMODEL1303260011
p829
aVMODEL1303260012
p830
aVMODEL1303260010
p831
aVMODEL1303260015
p832
aVMODEL1112100000
p833
aVMODEL1303260016
p834
aVMODEL1303260013
p835
aVMODEL1002240000
p836
aVMODEL1303260014
p837
aVMODEL0913242281
p838
aVMODEL4151491057
p839
aVMODEL0912503622
p840
aVMODEL1012080000
p841
aVMODEL4132046015
p842
aVMODEL7814665196
p843
aVMODEL1102210000
p844
aVMODEL0911665321
p845
aVMODEL1102210001
p846
aVMODEL9086207764
p847
aVMODEL7888000034
p848
aVMODEL1004070000
p849
aVMODEL9200487367
p850
aVMODEL1011300000
p851
aVMODEL1004070001
p852
aVMODEL0911272039
p853
aVMODEL6962035527
p854
aVMODEL0911270004
p855
aVMODEL1001200000
p856
aVMODEL6960055446
p857
aVMODEL0911270007
p858
aVMODEL0911270008
p859
aVMODEL0911270005
p860
aVMODEL0911270006
p861
aVMODEL1409050001
p862
aVMODEL1409050000
p863
aVMODEL9089491423
p864
aVMODEL2021729243
p865
aVMODEL1101100000
p866
aVMODEL7743358405
p867
aVMODEL0912180000
p868
aVMODEL0406553884
p869
aVMODEL1107190000
p870
aVMODEL1111240000
p871
aVMODEL3631586579
p872
aVMODEL1111240001
p873
aVMODEL1403120000
p874
aVMODEL9147091146
p875
aVMODEL1207300000
p876
aVMODEL1311110000
p877
aVMODEL7743444866
p878
aVMODEL3618487388
p879
aVMODEL7434234848
p880
aVMODEL0848116681
p881
aVMODEL1401290000
p882
aVMODEL7914759868
p883
aVMODEL1006230099
p884
aVMODEL1006230098
p885
aVMODEL1112260002
p886
aVMODEL1006230097
p887
aVMODEL0478740924
p888
aVMODEL0848342500
p889
aVMODEL1006230096
p890
aVMODEL1006230095
p891
aVMODEL0911047946
p892
aVMODEL1006230094
p893
aVMODEL1006230093
p894
aVMODEL1006230092
p895
aVMODEL1006230091
p896
aVMODEL0910896131
p897
aVMODEL1006230090
p898
aVMODEL1304190001
p899
aVMODEL1406230000
p900
aVMODEL3023641273
p901
aVMODEL1112260001
p902
aVMODEL1112260000
p903
aVMODEL4992089662
p904
aVMODEL1006230082
p905
aVMODEL1006230081
p906
aVMODEL1006230084
p907
aVMODEL4028801312
p908
aVMODEL1006230083
p909
aVMODEL1006230086
p910
aVMODEL7898438988
p911
aVMODEL1006230085
p912
aVMODEL1006230088
p913
aVMODEL1006230087
p914
aVMODEL1310110005
p915
aVMODEL1310110004
p916
aVMODEL1310110003
p917
aVMODEL1310110002
p918
aVMODEL1310110001
p919
aVMODEL1310110000
p920
aVMODEL3023609334
p921
aVMODEL1006230080
p922
aVMODEL0406793751
p923
aVMODEL1310110008
p924
aVMODEL1310110009
p925
aVMODEL1310110006
p926
aVMODEL1310110007
p927
aVMODEL7896869925
p928
aVMODEL1006230089
p929
aVMODEL1212060001
p930
aVMODEL1150151512
p931
aVMODEL1006230073
p932
aVMODEL1006230072
p933
aVMODEL0910928451
p934
aVMODEL1006230071
p935
aVMODEL1006230070
p936
aVMODEL1006230077
p937
aVMODEL1006230076
p938
aVMODEL1006230075
p939
aVMODEL1202170000
p940
aVMODEL1303130001
p941
aVMODEL8268650277
p942
aVMODEL4665428627
p943
aVMODEL1006230078
p944
aVMODEL1006230079
p945
aVMODEL8568434338
p946
aVMODEL1303140000
p947
aVMODEL1303140001
p948
aVMODEL7519354389
p949
aVMODEL9147232940
p950
aVMODEL3632127506
p951
aVMODEL1212040000
p952
aVMODEL1303260009
p953
aVMODEL1202090003
p954
aVMODEL1303260008
p955
aVMODEL1303260007
p956
aVMODEL1303260006
p957
aVMODEL1403040000
p958
aVMODEL1172940336
p959
aVMODEL7743608569
p960
aVMODEL1303260001
p961
aVMODEL1202270001
p962
aVMODEL1303260000
p963
aVMODEL1202270000
p964
aVMODEL1303260005
p965
aVMODEL1002160000
p966
aVMODEL1303260004
p967
aVMODEL1303260003
p968
aVMODEL1202090001
p969
aVMODEL1407050000
p970
aVMODEL1303260002
p971
aVMODEL1204040000
p972
aVMODEL1202090002
p973
aVMODEL1302180001
p974
aVMODEL1201070001
p975
aVMODEL1302180002
p976
aVMODEL1201070000
p977
aVMODEL7910499126
p978
aVMODEL1203070000
p979
aVMODEL6655501972
p980
aVMODEL9808533471
p981
aVMODEL2426780967
p982
aVMODEL1209260000
p983
aVMODEL9087988095
p984
aVMODEL0912768548
p985
aVMODEL7909395757
p986
aVMODEL1172501439
p987
aVMODEL8102792069
p988
aVMODEL9087766308
p989
aVMODEL9080747936
p990
aVMODEL1111190000
p991
aVMODEL1206070000
p992
aVMODEL5662377562
p993
aVMODEL1008110000
p994
aVMODEL1302200000
p995
aVMODEL1204240000
p996
aVMODEL0995500644
p997
aVMODEL0911601070
p998
aVMODEL1403250001
p999
aVMODEL1201140001
p1000
aVMODEL1403250000
p1001
aVMODEL1204060000
p1002
aVMODEL1201140000
p1003
aVMODEL8938094216
p1004
aVMODEL1012300000
p1005
aVMODEL1403250002
p1006
aVMODEL1108160000
p1007
aVMODEL1012110001
p1008
aVMODEL1007200000
p1009
aVMODEL4780441670
p1010
aVMODEL1201140006
p1011
aVMODEL1201140002
p1012
aVMODEL1201140003
p1013
aVMODEL1201140004
p1014
aVMODEL1201140005
p1015
aVMODEL7743576806
p1016
aVMODEL1009230000
p1017
aVMODEL8236441887
p1018
aVMODEL1009150002
p1019
aVMODEL1009150000
p1020
aVMODEL9089914876
p1021
aVMODEL6185746832
p1022
aVMODEL1101170000
p1023
aVMODEL6963432821
p1024
aVMODEL1204120000
p1025
aVMODEL9087474843
p1026
aVMODEL1105030000
p1027
aVMODEL1305240000
p1028
aVMODEL7980735163
p1029
aVMODEL9086628127
p1030
aVMODEL1012220004
p1031
aVMODEL1012220003
p1032
aVMODEL8686121468
p1033
aVMODEL1012220002
p1034
aVMODEL1106080000
p1035
aVMODEL0912835813
p1036
aVMODEL1109130000
p1037
aVMODEL1402200001
p1038
aVMODEL1402200002
p1039
aVMODEL2463576061
p1040
aVMODEL1402200003
p1041
aVMODEL1308080003
p1042
aVMODEL1308080002
p1043
aVMODEL1011080004
p1044
aVMODEL1011080003
p1045
aVMODEL1011080002
p1046
aVMODEL1011080001
p1047
aVMODEL9088169066
p1048
aVMODEL1011080000
p1049
aVMODEL1172425728
p1050
aVMODEL9811206584
p1051
aVMODEL1109150002
p1052
aVMODEL7743528808
p1053
aVMODEL1109150000
p1054
aVMODEL1109150001
p1055
aVMODEL0403954746
p1056
aVMODEL8236480549
p1057
aVMODEL1302010040
p1058
aVMODEL1302010041
p1059
aVMODEL0403988150
p1060
aVMODEL1302010044
p1061
aVMODEL1302010045
p1062
aVMODEL1302010042
p1063
aVMODEL1302010043
p1064
aVMODEL0909931851
p1065
aVMODEL0393108880
p1066
aVMODEL1209060000
p1067
aVMODEL1108260010
p1068
aVMODEL1109160001
p1069
aVMODEL1302010048
p1070
aVMODEL1302010047
p1071
aVMODEL0406151557
p1072
aVMODEL1302010046
p1073
aVMODEL1109160000
p1074
aVMODEL1108260014
p1075
aVMODEL0911309080
p1076
aVMODEL1108260015
p1077
aVMODEL1302010030
p1078
aVMODEL1302010031
p1079
aVMODEL1302010032
p1080
aVMODEL1302010033
p1081
aVMODEL0911120000
p1082
aVMODEL6399676120
p1083
aVMODEL1302010034
p1084
aVMODEL1112050000
p1085
aVMODEL7889395724
p1086
aVMODEL1112110000
p1087
aVMODEL1201230000
p1088
aVMODEL1112110001
p1089
aVMODEL1112110004
p1090
aVMODEL0403928902
p1091
aVMODEL1112110002
p1092
aVMODEL1112110003
p1093
aVMODEL1302010036
p1094
aVMODEL1302010035
p1095
aVMODEL1112050001
p1096
aVMODEL1302010038
p1097
aVMODEL1302010037
p1098
aVMODEL1302010039
p1099
aVMODEL9070467164
p1100
aVMODEL1302010022
p1101
aVMODEL1302010023
p1102
aVMODEL9079179924
p1103
aVMODEL1302010020
p1104
aVMODEL1302010021
p1105
aVMODEL0847999575
p1106
aVMODEL1009220000
p1107
aVMODEL1408060000
p1108
aVMODEL0913095435
p1109
aVMODEL1302010029
p1110
aVMODEL1302010028
p1111
aVMODEL3618435756
p1112
aVMODEL1302010027
p1113
aVMODEL1302010026
p1114
aVMODEL0479527919
p1115
aVMODEL1302010025
p1116
aVMODEL1302010024
p1117
aVMODEL8687732743
p1118
aVMODEL1311070000
p1119
aVMODEL1302010010
p1120
aVMODEL1302010011
p1121
aVMODEL1005050000
p1122
aVMODEL1302010012
p1123
aVMODEL1008120002
p1124
aVMODEL1008120001
p1125
aVMODEL0913285268
p1126
aVMODEL1008120000
p1127
aVMODEL0479926177
p1128
aVMODEL1008120006
p1129
aVMODEL1008120005
p1130
aVMODEL4968912141
p1131
aVMODEL1008120004
p1132
aVMODEL1008120003
p1133
aVMODEL2463683119
p1134
aVMODEL0912452142
p1135
aVMODEL7907879432
p1136
aVMODEL1302010018
p1137
aVMODEL1302010017
p1138
aVMODEL1302010019
p1139
aVMODEL1302010014
p1140
aVMODEL0406270966
p1141
aVMODEL1302010013
p1142
aVMODEL1302010016
p1143
aVMODEL1302010015
p1144
aVMODEL1303060000
p1145
aVMODEL1173105855
p1146
aVMODEL0911231713
p1147
aVMODEL5954483266
p1148
aVMODEL0847712949
p1149
aVMODEL8687196544
p1150
aVMODEL1301290000
p1151
aVMODEL1106220000
p1152
aVMODEL9079740062
p1153
aVMODEL0912940495
p1154
aVMODEL0911376350
p1155
aVMODEL5662324959
p1156
aVMODEL1304240000
p1157
aVMODEL0913145131
p1158
aVMODEL8236520494
p1159
aVMODEL0848062679
p1160
aVMODEL1001150000
p1161
aVMODEL9086926384
p1162
aVMODEL0912160003
p1163
aVMODEL0912160000
p1164
aVMODEL0912160001
p1165
aVMODEL5952308332
p1166
aVMODEL0912153452
p1167
aVMODEL0912160004
p1168
aVMODEL0912160005
p1169
aVMODEL1308180000
p1170
aVMODEL2937159804
p1171
aVMODEL0911342562
p1172
aVMODEL5950552398
p1173
aVMODEL0847869198
p1174
aVMODEL2784700357
p1175
aVMODEL1004010002
p1176
aVMODEL1004010001
p1177
aVMODEL1004010000
p1178
aVMODEL9086953089
p1179
aVMODEL9085850385
p1180
aVMODEL1305010000
p1181
aVMODEL2021747594
p1182
aVMODEL1006230108
p1183
aVMODEL3897771820
p1184
aVMODEL1310300000
p1185
aVMODEL9810152478
p1186
aVMODEL1006230101
p1187
aVMODEL1006230100
p1188
aVMODEL1006230103
p1189
aVMODEL1202030001
p1190
aVMODEL0911169699
p1191
aVMODEL7908934508
p1192
aVMODEL7914464799
p1193
aVMODEL1006230102
p1194
aVMODEL1006230105
p1195
aVMODEL0072364382
p1196
aVMODEL1006230104
p1197
aVMODEL1006230107
p1198
aVMODEL1006230106
p1199
aVMODEL7893871775
p1200
aVMODEL1204190001
p1201
aVMODEL1011010000
p1202
aVMODEL1204190000
p1203
aVMODEL1202030000
p1204
aVMODEL1204190005
p1205
aVMODEL1204190004
p1206
aVMODEL1303010000
p1207
aVMODEL0318212660
p1208
aVMODEL1204190003
p1209
aVMODEL1204190002
p1210
a.